target datalayout = "e-m:e-p270:32:32-p271:32:32-p272:64:64-i64:64-i128:128-f80:128-n8:16:32:64-S128"
target triple = "x86_64-pc-linux-gnu"

%struct.toku_mutex_t = type { %union.pthread_mutex_t, ptr }
%union.pthread_mutex_t = type { %struct.__pthread_mutex_s }
%struct.__pthread_mutex_s = type { i32, i32, i32, i32, i32, i16, i16, %struct.__pthread_internal_list }
%struct.__pthread_internal_list = type { ptr, ptr }
%"class.toku::keyrange" = type <{ %struct.__toku_dbt, %struct.__toku_dbt, ptr, ptr, i8, [7 x i8] }>
%struct.__toku_dbt = type { ptr, i64, i64, i32 }
%"class.toku::treenode" = type <{ %struct.toku_mutex_t, %"class.toku::keyrange", i64, i8, [7 x i8], ptr, %"struct.toku::treenode::child_ptr", %"struct.toku::treenode::child_ptr", ptr, i8, i8, [6 x i8] }>
%"struct.toku::treenode::child_ptr" = type { ptr, i32 }
%"class.toku::GrowableArray" = type { ptr, i64, i64 }
%"struct.toku::row_lock" = type { %"class.toku::keyrange", i64, i8, ptr }
%struct.copy_fn_obj = type { ptr }

; Function Attrs: mustprogress uwtable
define linkonce_odr void @_ZN4toku13GrowableArrayINS_8row_lockEE4pushES1_(ptr noundef nonnull align 8 dereferenceable(24) %0, ptr noundef byval(%"struct.toku::row_lock") align 8 %1) #0 comdat align 2 {
  %3 = alloca ptr, align 8
  store ptr %0, ptr %3, align 8, !tbaa !120
  %4 = load ptr, ptr %3, align 8
  %5 = getelementptr inbounds nuw %"class.toku::GrowableArray", ptr %4, i32 0, i32 1
  %6 = load i64, ptr %5, align 8, !tbaa !125
  %7 = getelementptr inbounds nuw %"class.toku::GrowableArray", ptr %4, i32 0, i32 2
  %8 = load i64, ptr %7, align 8, !tbaa !126
  %9 = icmp uge i64 %6, %8
  br i1 %9, label %10, label %28

10:                                               ; preds = %2
  %11 = getelementptr inbounds nuw %"class.toku::GrowableArray", ptr %4, i32 0, i32 0
  %12 = load ptr, ptr %11, align 8, !tbaa !122
  %13 = icmp eq ptr %12, null
  br i1 %13, label %14, label %16

14:                                               ; preds = %10
  %15 = getelementptr inbounds nuw %"class.toku::GrowableArray", ptr %4, i32 0, i32 2
  store i64 1, ptr %15, align 8, !tbaa !126
  br label %20

16:                                               ; preds = %10
  %17 = getelementptr inbounds nuw %"class.toku::GrowableArray", ptr %4, i32 0, i32 2
  %18 = load i64, ptr %17, align 8, !tbaa !126
  %19 = mul i64 %18, 2
  store i64 %19, ptr %17, align 8, !tbaa !126
  br label %20

20:                                               ; preds = %16, %14
  %21 = getelementptr inbounds nuw %"class.toku::GrowableArray", ptr %4, i32 0, i32 0
  %22 = load ptr, ptr %21, align 8, !tbaa !122
  %23 = getelementptr inbounds nuw %"class.toku::GrowableArray", ptr %4, i32 0, i32 2
  %24 = load i64, ptr %23, align 8, !tbaa !126
  %25 = mul i64 %24, 112
  %26 = call noundef ptr @_Z13toku_xreallocPvm(ptr noundef %22, i64 noundef %25)
  %27 = getelementptr inbounds nuw %"class.toku::GrowableArray", ptr %4, i32 0, i32 0
  store ptr %26, ptr %27, align 8, !tbaa !122
  br label %28

28:                                               ; preds = %20, %2
  %29 = getelementptr inbounds nuw %"class.toku::GrowableArray", ptr %4, i32 0, i32 0
  %30 = load ptr, ptr %29, align 8, !tbaa !122
  %31 = getelementptr inbounds nuw %"class.toku::GrowableArray", ptr %4, i32 0, i32 1
  %32 = load i64, ptr %31, align 8, !tbaa !125
  %33 = add i64 %32, 1
  store i64 %33, ptr %31, align 8, !tbaa !125
  %34 = getelementptr inbounds nuw %"struct.toku::row_lock", ptr %30, i64 %32
  call void @llvm.memcpy.p0.p0.i64(ptr align 8 %34, ptr align 8 %1, i64 112, i1 false), !tbaa.struct !140
  ret void
}

; Function Attrs: mustprogress uwtable
define internal noundef zeroext i1 @_ZZN4tokuL37iterate_and_get_overlapping_row_locksEPKNS_15concurrent_tree15locked_keyrangeEPNS_13GrowableArrayINS_8row_lockEEEEN11copy_fn_obj2fnERKNS_8keyrangeEmbP11TxnidVector(ptr noundef nonnull align 8 dereferenceable(8) %0, ptr noundef nonnull align 8 dereferenceable(81) %1, i64 noundef %2, i1 noundef zeroext %3, ptr noundef %4) #0 align 2 {
  %6 = alloca ptr, align 8
  %7 = alloca ptr, align 8
  %8 = alloca i64, align 8
  %9 = alloca i8, align 1
  %10 = alloca ptr, align 8
  %11 = alloca %"struct.toku::row_lock", align 8
  %12 = alloca %"struct.toku::row_lock", align 8
  store ptr %0, ptr %6, align 8, !tbaa !214
  store ptr %1, ptr %7, align 8, !tbaa !217
  store i64 %2, ptr %8, align 8, !tbaa !46
  %13 = zext i1 %3 to i8
  store i8 %13, ptr %9, align 1, !tbaa !67
  store ptr %4, ptr %10, align 8, !tbaa !138
  %14 = load ptr, ptr %6, align 8
  call void @llvm.lifetime.start.p0(i64 112, ptr %11) #18
  %15 = getelementptr inbounds nuw %"struct.toku::row_lock", ptr %11, i32 0, i32 0
  %16 = load ptr, ptr %7, align 8, !tbaa !217
  call void @llvm.memcpy.p0.p0.i64(ptr align 8 %15, ptr align 8 %16, i64 81, i1 false), !tbaa.struct !100
  %17 = getelementptr inbounds nuw %"struct.toku::row_lock", ptr %11, i32 0, i32 1
  %18 = load i64, ptr %8, align 8, !tbaa !46
  store i64 %18, ptr %17, align 8, !tbaa !101
  %19 = getelementptr inbounds nuw %"struct.toku::row_lock", ptr %11, i32 0, i32 2
  %20 = load i8, ptr %9, align 1, !tbaa !67, !range !68, !noundef !69
  %21 = trunc i8 %20 to i1
  %22 = zext i1 %21 to i8
  store i8 %22, ptr %19, align 8, !tbaa !106
  %23 = getelementptr inbounds nuw %"struct.toku::row_lock", ptr %11, i32 0, i32 3
  %24 = load ptr, ptr %10, align 8, !tbaa !138
  store ptr %24, ptr %23, align 8, !tbaa !107
  %25 = getelementptr inbounds nuw %struct.copy_fn_obj, ptr %14, i32 0, i32 0
  %26 = load ptr, ptr %25, align 8, !tbaa !127
  call void @llvm.memcpy.p0.p0.i64(ptr align 8 %12, ptr align 8 %11, i64 112, i1 false), !tbaa.struct !140
  call void @_ZN4toku13GrowableArrayINS_8row_lockEE4pushES1_(ptr noundef nonnull align 8 dereferenceable(24) %26, ptr noundef byval(%"struct.toku::row_lock") align 8 %12)
  call void @llvm.lifetime.end.p0(i64 112, ptr %11) #18
  ret i1 true
}

; Function Attrs: mustprogress uwtable
define internal void @_ZN4toku8treenode17traverse_overlapsIZNS_L37iterate_and_get_overlapping_row_locksEPKNS_15concurrent_tree15locked_keyrangeEPNS_13GrowableArrayINS_8row_lockEEEE11copy_fn_objEEvRKNS_8keyrangeEPT_(ptr noundef nonnull align 8 dereferenceable(202) %0, ptr noundef nonnull align 8 dereferenceable(81) %1, ptr noundef %2) #0 align 2 {
  %4 = alloca ptr, align 8
  %5 = alloca ptr, align 8
  %6 = alloca ptr, align 8
  %7 = alloca i32, align 4
  %8 = alloca i32, align 4
  %9 = alloca ptr, align 8
  %10 = alloca i8, align 1
  %11 = alloca ptr, align 8
  store ptr %0, ptr %4, align 8, !tbaa !216
  store ptr %1, ptr %5, align 8, !tbaa !217
  store ptr %2, ptr %6, align 8, !tbaa !214
  %12 = load ptr, ptr %4, align 8
  call void @llvm.lifetime.start.p0(i64 4, ptr %7) #18
  %13 = load ptr, ptr %5, align 8, !tbaa !217
  %14 = getelementptr inbounds nuw %"class.toku::treenode", ptr %12, i32 0, i32 8
  %15 = load ptr, ptr %14, align 8, !tbaa !219
  %16 = getelementptr inbounds nuw %"class.toku::treenode", ptr %12, i32 0, i32 1
  %17 = call noundef i32 @_ZNK4toku8keyrange7compareERKNS_10comparatorERKS0_(ptr noundef nonnull align 8 dereferenceable(81) %13, ptr noundef nonnull align 8 dereferenceable(17) %15, ptr noundef nonnull align 8 dereferenceable(81) %16)
  store i32 %17, ptr %7, align 4, !tbaa !222
  %18 = load i32, ptr %7, align 4, !tbaa !222
  %19 = icmp eq i32 %18, 0
  br i1 %19, label %20, label %31

20:                                               ; preds = %3
  %21 = load ptr, ptr %6, align 8, !tbaa !214
  %22 = getelementptr inbounds nuw %"class.toku::treenode", ptr %12, i32 0, i32 1
  %23 = getelementptr inbounds nuw %"class.toku::treenode", ptr %12, i32 0, i32 2
  %24 = load i64, ptr %23, align 8, !tbaa !224
  %25 = getelementptr inbounds nuw %"class.toku::treenode", ptr %12, i32 0, i32 3
  %26 = load i8, ptr %25, align 8, !tbaa !225, !range !68, !noundef !69
  %27 = trunc i8 %26 to i1
  %28 = getelementptr inbounds nuw %"class.toku::treenode", ptr %12, i32 0, i32 5
  %29 = load ptr, ptr %28, align 8, !tbaa !226
  %30 = call noundef zeroext i1 @_ZZN4tokuL37iterate_and_get_overlapping_row_locksEPKNS_15concurrent_tree15locked_keyrangeEPNS_13GrowableArrayINS_8row_lockEEEEN11copy_fn_obj2fnERKNS_8keyrangeEmbP11TxnidVector(ptr noundef nonnull align 8 dereferenceable(8) %21, ptr noundef nonnull align 8 dereferenceable(81) %22, i64 noundef %24, i1 noundef zeroext %27, ptr noundef %29)
  store i32 1, ptr %8, align 4
  br label %83

31:                                               ; preds = %3
  call void @llvm.lifetime.start.p0(i64 8, ptr %9) #18
  %32 = getelementptr inbounds nuw %"class.toku::treenode", ptr %12, i32 0, i32 6
  %33 = call noundef ptr @_ZN4toku8treenode9child_ptr10get_lockedEv(ptr noundef nonnull align 8 dereferenceable(16) %32)
  store ptr %33, ptr %9, align 8, !tbaa !216
  %34 = load ptr, ptr %9, align 8, !tbaa !216
  %35 = icmp ne ptr %34, null
  br i1 %35, label %36, label %45

36:                                               ; preds = %31
  %37 = load i32, ptr %7, align 4, !tbaa !222
  %38 = icmp ne i32 %37, 2
  br i1 %38, label %39, label %43

39:                                               ; preds = %36
  %40 = load ptr, ptr %9, align 8, !tbaa !216
  %41 = load ptr, ptr %5, align 8, !tbaa !217
  %42 = load ptr, ptr %6, align 8, !tbaa !214
  call void @_ZN4toku8treenode17traverse_overlapsIZNS_L37iterate_and_get_overlapping_row_locksEPKNS_15concurrent_tree15locked_keyrangeEPNS_13GrowableArrayINS_8row_lockEEEE11copy_fn_objEEvRKNS_8keyrangeEPT_(ptr noundef nonnull align 8 dereferenceable(202) %40, ptr noundef nonnull align 8 dereferenceable(81) %41, ptr noundef %42)
  br label %43

43:                                               ; preds = %39, %36
  %44 = load ptr, ptr %9, align 8, !tbaa !216
  call void @_ZN4toku8treenode12mutex_unlockEv(ptr noundef nonnull align 8 dereferenceable(202) %44)
  br label %45

45:                                               ; preds = %43, %31
  %46 = load i32, ptr %7, align 4, !tbaa !222
  %47 = icmp eq i32 %46, 3
  br i1 %47, label %48, label %67

48:                                               ; preds = %45
  call void @llvm.lifetime.start.p0(i64 1, ptr %10) #18
  %49 = load ptr, ptr %6, align 8, !tbaa !214
  %50 = getelementptr inbounds nuw %"class.toku::treenode", ptr %12, i32 0, i32 1
  %51 = getelementptr inbounds nuw %"class.toku::treenode", ptr %12, i32 0, i32 2
  %52 = load i64, ptr %51, align 8, !tbaa !224
  %53 = getelementptr inbounds nuw %"class.toku::treenode", ptr %12, i32 0, i32 3
  %54 = load i8, ptr %53, align 8, !tbaa !225, !range !68, !noundef !69
  %55 = trunc i8 %54 to i1
  %56 = getelementptr inbounds nuw %"class.toku::treenode", ptr %12, i32 0, i32 5
  %57 = load ptr, ptr %56, align 8, !tbaa !226
  %58 = call noundef zeroext i1 @_ZZN4tokuL37iterate_and_get_overlapping_row_locksEPKNS_15concurrent_tree15locked_keyrangeEPNS_13GrowableArrayINS_8row_lockEEEEN11copy_fn_obj2fnERKNS_8keyrangeEmbP11TxnidVector(ptr noundef nonnull align 8 dereferenceable(8) %49, ptr noundef nonnull align 8 dereferenceable(81) %50, i64 noundef %52, i1 noundef zeroext %55, ptr noundef %57)
  %59 = zext i1 %58 to i8
  store i8 %59, ptr %10, align 1, !tbaa !67
  %60 = load i8, ptr %10, align 1, !tbaa !67, !range !68, !noundef !69
  %61 = trunc i8 %60 to i1
  br i1 %61, label %63, label %62

62:                                               ; preds = %48
  store i32 1, ptr %8, align 4
  br label %64

63:                                               ; preds = %48
  store i32 0, ptr %8, align 4
  br label %64

64:                                               ; preds = %63, %62
  call void @llvm.lifetime.end.p0(i64 1, ptr %10) #18
  %65 = load i32, ptr %8, align 4
  switch i32 %65, label %82 [
    i32 0, label %66
  ]

66:                                               ; preds = %64
  br label %67

67:                                               ; preds = %66, %45
  call void @llvm.lifetime.start.p0(i64 8, ptr %11) #18
  %68 = getelementptr inbounds nuw %"class.toku::treenode", ptr %12, i32 0, i32 7
  %69 = call noundef ptr @_ZN4toku8treenode9child_ptr10get_lockedEv(ptr noundef nonnull align 8 dereferenceable(16) %68)
  store ptr %69, ptr %11, align 8, !tbaa !216
  %70 = load ptr, ptr %11, align 8, !tbaa !216
  %71 = icmp ne ptr %70, null
  br i1 %71, label %72, label %81

72:                                               ; preds = %67
  %73 = load i32, ptr %7, align 4, !tbaa !222
  %74 = icmp ne i32 %73, 1
  br i1 %74, label %75, label %79

75:                                               ; preds = %72
  %76 = load ptr, ptr %11, align 8, !tbaa !216
  %77 = load ptr, ptr %5, align 8, !tbaa !217
  %78 = load ptr, ptr %6, align 8, !tbaa !214
  call void @_ZN4toku8treenode17traverse_overlapsIZNS_L37iterate_and_get_overlapping_row_locksEPKNS_15concurrent_tree15locked_keyrangeEPNS_13GrowableArrayINS_8row_lockEEEE11copy_fn_objEEvRKNS_8keyrangeEPT_(ptr noundef nonnull align 8 dereferenceable(202) %76, ptr noundef nonnull align 8 dereferenceable(81) %77, ptr noundef %78)
  br label %79

79:                                               ; preds = %75, %72
  %80 = load ptr, ptr %11, align 8, !tbaa !216
  call void @_ZN4toku8treenode12mutex_unlockEv(ptr noundef nonnull align 8 dereferenceable(202) %80)
  br label %81

81:                                               ; preds = %79, %67
  call void @llvm.lifetime.end.p0(i64 8, ptr %11) #18
  store i32 0, ptr %8, align 4
  br label %82

82:                                               ; preds = %81, %64
  call void @llvm.lifetime.end.p0(i64 8, ptr %9) #18
  br label %83

83:                                               ; preds = %82, %20
  call void @llvm.lifetime.end.p0(i64 4, ptr %7) #18
  %84 = load i32, ptr %8, align 4
  switch i32 %84, label %86 [
    i32 0, label %85
    i32 1, label %85
  ]

85:                                               ; preds = %83, %83
  ret void

86:                                               ; preds = %83
  unreachable
}