; Function Attrs: mustprogress uwtable
define internal fastcc void @_ZN4toku8treenode17traverse_overlapsIZNS_L37iterate_and_get_overlapping_row_locksEPKNS_15concurrent_tree15locked_keyrangeEPNS_13GrowableArrayINS_8row_lockEEEE11copy_fn_objEEvRKNS_8keyrangeEPT_(ptr noundef nonnull align 8 dereferenceable(202) %0, ptr noundef nonnull align 8 dereferenceable(81) %1, ptr noundef nonnull %2) unnamed_addr #0 align 2 {
  %.sroa.04.i26 = alloca %"class.toku::keyrange", align 8
  %.sroa.04.i = alloca %"class.toku::keyrange", align 8
  %4 = getelementptr inbounds nuw i8, ptr %0, i64 192
  %5 = load ptr, ptr %4, align 8, !tbaa !173
  %6 = getelementptr inbounds nuw i8, ptr %0, i64 48
  %7 = tail call noundef i32 @_ZNK4toku8keyrange7compareERKNS_10comparatorERKS0_(ptr noundef nonnull align 8 dereferenceable(81) %1, ptr noundef nonnull align 8 dereferenceable(17) %5, ptr noundef nonnull align 8 dereferenceable(81) %6)
  %8 = icmp eq i32 %7, 0
  br i1 %8, label %9, label %29

9:                                                ; preds = %3
  %10 = getelementptr inbounds nuw i8, ptr %0, i64 136
  %11 = load i64, ptr %10, align 8, !tbaa !176
  %12 = getelementptr inbounds nuw i8, ptr %0, i64 144
  %13 = load i8, ptr %12, align 8, !tbaa !177, !range !67, !noundef !68
  %14 = getelementptr inbounds nuw i8, ptr %0, i64 152
  %15 = load ptr, ptr %14, align 8, !tbaa !178
  %.val = load ptr, ptr %2, align 8, !tbaa !89
  call void @llvm.lifetime.start.p0(i64 88, ptr nonnull %.sroa.04.i)
  call void @llvm.memcpy.p0.p0.i64(ptr noundef nonnull align 8 dereferenceable(81) %.sroa.04.i, ptr noundef nonnull readonly align 8 dereferenceable(81) %6, i64 81, i1 false)
  %16 = getelementptr inbounds nuw i8, ptr %.val, i64 8
  %17 = load i64, ptr %16, align 8, !tbaa !109
  %18 = getelementptr inbounds nuw i8, ptr %.val, i64 16
  %19 = load i64, ptr %18, align 8, !tbaa !179
  %.not.i.i = icmp ult i64 %17, %19
  %.pre.i.i = load ptr, ptr %.val, align 8, !tbaa !112
  br i1 %.not.i.i, label %_ZZN4tokuL37iterate_and_get_overlapping_row_locksEPKNS_15concurrent_tree15locked_keyrangeEPNS_13GrowableArrayINS_8row_lockEEEEN11copy_fn_obj2fnERKNS_8keyrangeEmbP11TxnidVector.exit, label %20

20:                                               ; preds = %9
  %21 = icmp eq ptr %.pre.i.i, null
  %22 = shl i64 %19, 1
  %storemerge.i.i = select i1 %21, i64 1, i64 %22
  store i64 %storemerge.i.i, ptr %18, align 8, !tbaa !179
  %23 = mul i64 %storemerge.i.i, 112
  %24 = tail call noundef ptr @_Z13toku_xreallocPvm(ptr noundef %.pre.i.i, i64 noundef %23)
  store ptr %24, ptr %.val, align 8, !tbaa !112
  %.pre1.i.i = load i64, ptr %16, align 8, !tbaa !109
  br label %_ZZN4tokuL37iterate_and_get_overlapping_row_locksEPKNS_15concurrent_tree15locked_keyrangeEPNS_13GrowableArrayINS_8row_lockEEEEN11copy_fn_obj2fnERKNS_8keyrangeEmbP11TxnidVector.exit

_ZZN4tokuL37iterate_and_get_overlapping_row_locksEPKNS_15concurrent_tree15locked_keyrangeEPNS_13GrowableArrayINS_8row_lockEEEEN11copy_fn_obj2fnERKNS_8keyrangeEmbP11TxnidVector.exit: ; preds = %9, %20
  %25 = phi i64 [ %.pre1.i.i, %20 ], [ %17, %9 ]
  %26 = phi ptr [ %24, %20 ], [ %.pre.i.i, %9 ]
  %27 = add i64 %25, 1
  store i64 %27, ptr %16, align 8, !tbaa !109
  %28 = getelementptr inbounds nuw %"struct.toku::row_lock", ptr %26, i64 %25
  call void @llvm.memcpy.p0.p0.i64(ptr noundef nonnull align 8 dereferenceable(88) %28, ptr noundef nonnull align 8 dereferenceable(88) %.sroa.04.i, i64 88, i1 false), !tbaa.struct !126
  %.sroa.45.0..sroa_idx.i = getelementptr inbounds nuw i8, ptr %28, i64 88
  store i64 %11, ptr %.sroa.45.0..sroa_idx.i, align 8, !tbaa !38
  %.sroa.56.0..sroa_idx.i = getelementptr inbounds nuw i8, ptr %28, i64 96
  store i8 %13, ptr %.sroa.56.0..sroa_idx.i, align 8, !tbaa !103
  %.sroa.7.0..sroa_idx.i = getelementptr inbounds nuw i8, ptr %28, i64 104
  store ptr %15, ptr %.sroa.7.0..sroa_idx.i, align 8, !tbaa !117
  call void @llvm.lifetime.end.p0(i64 88, ptr nonnull %.sroa.04.i)
  br label %66

29:                                               ; preds = %3
  %30 = getelementptr inbounds nuw i8, ptr %0, i64 160
  %31 = tail call noundef ptr @_ZN4toku8treenode9child_ptr10get_lockedEv(ptr noundef nonnull align 8 dereferenceable(16) %30)
  %.not = icmp eq ptr %31, null
  br i1 %.not, label %35, label %32

32:                                               ; preds = %29
  %.not22 = icmp eq i32 %7, 2
  br i1 %.not22, label %34, label %33

33:                                               ; preds = %32
  tail call fastcc void @_ZN4toku8treenode17traverse_overlapsIZNS_L37iterate_and_get_overlapping_row_locksEPKNS_15concurrent_tree15locked_keyrangeEPNS_13GrowableArrayINS_8row_lockEEEE11copy_fn_objEEvRKNS_8keyrangeEPT_(ptr noundef nonnull align 8 dereferenceable(202) %31, ptr noundef nonnull align 8 dereferenceable(81) %1, ptr noundef %2)
  br label %34

34:                                               ; preds = %33, %32
  tail call void @_ZN4toku8treenode12mutex_unlockEv(ptr noundef nonnull align 8 dereferenceable(202) %31)
  br label %35

35:                                               ; preds = %34, %29
  %36 = icmp eq i32 %7, 3
  br i1 %36, label %37, label %53

37:                                               ; preds = %35
  %38 = getelementptr inbounds nuw i8, ptr %0, i64 136
  %39 = load i64, ptr %38, align 8, !tbaa !176
  %40 = getelementptr inbounds nuw i8, ptr %0, i64 144
  %41 = load i8, ptr %40, align 8, !tbaa !177, !range !67, !noundef !68
  %42 = getelementptr inbounds nuw i8, ptr %0, i64 152
  %43 = load ptr, ptr %42, align 8, !tbaa !178
  %.val25 = load ptr, ptr %2, align 8, !tbaa !89
  call void @llvm.lifetime.start.p0(i64 88, ptr nonnull %.sroa.04.i26)
  call void @llvm.memcpy.p0.p0.i64(ptr noundef nonnull align 8 dereferenceable(81) %.sroa.04.i26, ptr noundef nonnull readonly align 8 dereferenceable(81) %6, i64 81, i1 false)
  %44 = getelementptr inbounds nuw i8, ptr %.val25, i64 8
  %45 = load i64, ptr %44, align 8, !tbaa !109
  %46 = getelementptr inbounds nuw i8, ptr %.val25, i64 16
  %47 = load i64, ptr %46, align 8, !tbaa !179
  %.not.i.i27 = icmp ult i64 %45, %47
  %.pre.i.i28 = load ptr, ptr %.val25, align 8, !tbaa !112
  br i1 %.not.i.i27, label %.thread, label %48

48:                                               ; preds = %37
  %49 = icmp eq ptr %.pre.i.i28, null
  %50 = shl i64 %47, 1
  %storemerge.i.i29 = select i1 %49, i64 1, i64 %50
  store i64 %storemerge.i.i29, ptr %46, align 8, !tbaa !179
  %51 = mul i64 %storemerge.i.i29, 112
  %52 = tail call noundef ptr @_Z13toku_xreallocPvm(ptr noundef %.pre.i.i28, i64 noundef %51)
  store ptr %52, ptr %.val25, align 8, !tbaa !112
  %.pre1.i.i30 = load i64, ptr %44, align 8, !tbaa !109
  br label %.thread

53:                                               ; preds = %35
  %54 = getelementptr inbounds nuw i8, ptr %0, i64 176
  %55 = tail call noundef ptr @_ZN4toku8treenode9child_ptr10get_lockedEv(ptr noundef nonnull align 8 dereferenceable(16) %54)
  %.not23 = icmp eq ptr %55, null
  br i1 %.not23, label %66, label %62

.thread:                                          ; preds = %48, %37
  %56 = phi i64 [ %.pre1.i.i30, %48 ], [ %45, %37 ]
  %57 = phi ptr [ %52, %48 ], [ %.pre.i.i28, %37 ]
  %58 = add i64 %56, 1
  store i64 %58, ptr %44, align 8, !tbaa !109
  %59 = getelementptr inbounds nuw %"struct.toku::row_lock", ptr %57, i64 %56
  call void @llvm.memcpy.p0.p0.i64(ptr noundef nonnull align 8 dereferenceable(88) %59, ptr noundef nonnull align 8 dereferenceable(88) %.sroa.04.i26, i64 88, i1 false), !tbaa.struct !126
  %.sroa.45.0..sroa_idx.i31 = getelementptr inbounds nuw i8, ptr %59, i64 88
  store i64 %39, ptr %.sroa.45.0..sroa_idx.i31, align 8, !tbaa !38
  %.sroa.56.0..sroa_idx.i32 = getelementptr inbounds nuw i8, ptr %59, i64 96
  store i8 %41, ptr %.sroa.56.0..sroa_idx.i32, align 8, !tbaa !103
  %.sroa.7.0..sroa_idx.i33 = getelementptr inbounds nuw i8, ptr %59, i64 104
  store ptr %43, ptr %.sroa.7.0..sroa_idx.i33, align 8, !tbaa !117
  call void @llvm.lifetime.end.p0(i64 88, ptr nonnull %.sroa.04.i26)
  %60 = getelementptr inbounds nuw i8, ptr %0, i64 176
  %61 = tail call noundef ptr @_ZN4toku8treenode9child_ptr10get_lockedEv(ptr noundef nonnull align 8 dereferenceable(16) %60)
  %.not2335 = icmp eq ptr %61, null
  br i1 %.not2335, label %66, label %.thread36

62:                                               ; preds = %53
  %.not24 = icmp eq i32 %7, 1
  br i1 %.not24, label %64, label %.thread36

.thread36:                                        ; preds = %.thread, %62
  %63 = phi ptr [ %55, %62 ], [ %61, %.thread ]
  tail call fastcc void @_ZN4toku8treenode17traverse_overlapsIZNS_L37iterate_and_get_overlapping_row_locksEPKNS_15concurrent_tree15locked_keyrangeEPNS_13GrowableArrayINS_8row_lockEEEE11copy_fn_objEEvRKNS_8keyrangeEPT_(ptr noundef nonnull align 8 dereferenceable(202) %63, ptr noundef nonnull align 8 dereferenceable(81) %1, ptr noundef %2)
  br label %64

64:                                               ; preds = %.thread36, %62
  %65 = phi ptr [ %63, %.thread36 ], [ %55, %62 ]
  tail call void @_ZN4toku8treenode12mutex_unlockEv(ptr noundef nonnull align 8 dereferenceable(202) %65)
  br label %66

66:                                               ; preds = %.thread, %64, %53, %_ZZN4tokuL37iterate_and_get_overlapping_row_locksEPKNS_15concurrent_tree15locked_keyrangeEPNS_13GrowableArrayINS_8row_lockEEEEN11copy_fn_obj2fnERKNS_8keyrangeEmbP11TxnidVector.exit
  ret void
}